; ModuleID = 'source-C-CXX/6/74.c'
source_filename = "source-C-CXX/6/74.c"
target datalayout = "e-m:e-p270:32:32-p271:32:32-p272:64:64-i64:64-f80:128-n8:16:32:64-S128"
target triple = "x86_64-pc-linux-gnu"

@.str.1 = private unnamed_addr constant [3 x i8] c"%s\00", align 1

; Function Attrs: nounwind sspstrong uwtable
define dso_local i32 @main() local_unnamed_addr #0 {
  %1 = alloca [100 x i8], align 16
  %2 = alloca [100 x i8], align 16
  %3 = alloca [100 x i8], align 16
  %4 = getelementptr inbounds [100 x i8], [100 x i8]* %1, i64 0, i64 0
  call void @llvm.lifetime.start.p0i8(i64 100, i8* nonnull %4) #6
  %5 = call i32 (i8*, ...) bitcast (i32 (...)* @gets to i32 (i8*, ...)*)(i8* nonnull %4) #6
  %6 = getelementptr inbounds [100 x i8], [100 x i8]* %2, i64 0, i64 0
  call void @llvm.lifetime.start.p0i8(i64 100, i8* nonnull %6) #6
  %7 = call i32 (i8*, ...) bitcast (i32 (...)* @gets to i32 (i8*, ...)*)(i8* nonnull %6) #6
  %8 = getelementptr inbounds [100 x i8], [100 x i8]* %3, i64 0, i64 0
  call void @llvm.lifetime.start.p0i8(i64 100, i8* nonnull %8) #6
  %9 = call i32 (i8*, ...) bitcast (i32 (...)* @gets to i32 (i8*, ...)*)(i8* nonnull %8) #6
  %10 = call i64 @strlen(i8* noundef nonnull %6) #7
  %11 = trunc i64 %10 to i32
  %12 = load i8, i8* %6, align 16
  %13 = load i8, i8* %4, align 16, !tbaa !5
  %14 = icmp eq i8 %13, 0
  br i1 %14, label %88, label %15

15:                                               ; preds = %0
  %16 = icmp sgt i32 %11, 1
  br i1 %16, label %19, label %17

17:                                               ; preds = %15
  %18 = icmp eq i32 %11, 1
  br label %47

19:                                               ; preds = %15
  %20 = and i64 %10, 4294967295
  br label %21

21:                                               ; preds = %19, %39
  %22 = phi i64 [ 0, %19 ], [ %40, %39 ]
  %23 = phi i8 [ %13, %19 ], [ %42, %39 ]
  %24 = phi i32 [ undef, %19 ], [ %37, %39 ]
  %25 = icmp eq i8 %12, %23
  br i1 %25, label %26, label %36

26:                                               ; preds = %21, %44
  %27 = phi i64 [ %45, %44 ], [ 1, %21 ]
  %28 = getelementptr inbounds [100 x i8], [100 x i8]* %2, i64 0, i64 %27
  %29 = load i8, i8* %28, align 1, !tbaa !5
  %30 = add nuw nsw i64 %27, %22
  %31 = getelementptr inbounds [100 x i8], [100 x i8]* %1, i64 0, i64 %30
  %32 = load i8, i8* %31, align 1, !tbaa !5
  %33 = icmp eq i8 %29, %32
  br i1 %33, label %44, label %34

34:                                               ; preds = %26
  %35 = trunc i64 %27 to i32
  br label %36

36:                                               ; preds = %34, %21
  %37 = phi i32 [ %24, %21 ], [ %35, %34 ]
  %38 = icmp eq i32 %37, %11
  br i1 %38, label %49, label %39

39:                                               ; preds = %36
  %40 = add nuw nsw i64 %22, 1
  %41 = getelementptr inbounds [100 x i8], [100 x i8]* %1, i64 0, i64 %40
  %42 = load i8, i8* %41, align 1, !tbaa !5
  %43 = icmp eq i8 %42, 0
  br i1 %43, label %88, label %21, !llvm.loop !8

44:                                               ; preds = %26
  %45 = add nuw nsw i64 %27, 1
  %46 = icmp eq i64 %45, %20
  br i1 %46, label %49, label %26, !llvm.loop !10

47:                                               ; preds = %17, %83
  %48 = phi i64 [ 0, %17 ], [ %84, %83 ]
  br i1 %18, label %49, label %83

49:                                               ; preds = %47, %36, %44
  %50 = phi i64 [ %22, %44 ], [ %22, %36 ], [ %48, %47 ]
  %51 = trunc i64 %50 to i32
  %52 = icmp eq i32 %51, 0
  br i1 %52, label %66, label %53

53:                                               ; preds = %49
  %54 = and i64 %50, 4294967295
  %55 = sext i8 %13 to i32
  %56 = call i32 @putchar(i32 %55)
  %57 = icmp eq i64 %54, 1
  br i1 %57, label %66, label %58, !llvm.loop !11

58:                                               ; preds = %53, %58
  %59 = phi i64 [ %64, %58 ], [ 1, %53 ]
  %60 = getelementptr inbounds [100 x i8], [100 x i8]* %1, i64 0, i64 %59
  %61 = load i8, i8* %60, align 1, !tbaa !5
  %62 = sext i8 %61 to i32
  %63 = call i32 @putchar(i32 %62)
  %64 = add nuw nsw i64 %59, 1
  %65 = icmp eq i64 %64, %54
  br i1 %65, label %66, label %58, !llvm.loop !11

66:                                               ; preds = %58, %53, %49
  %67 = call i32 (i8*, ...) @printf(i8* nonnull dereferenceable(1) getelementptr inbounds ([3 x i8], [3 x i8]* @.str.1, i64 0, i64 0), i8* nonnull %8)
  %68 = add i64 %50, %10
  %69 = shl i64 %68, 32
  %70 = ashr exact i64 %69, 32
  %71 = getelementptr inbounds [100 x i8], [100 x i8]* %1, i64 0, i64 %70
  %72 = load i8, i8* %71, align 1, !tbaa !5
  %73 = icmp eq i8 %72, 0
  br i1 %73, label %90, label %74

74:                                               ; preds = %66, %74
  %75 = phi i64 [ %79, %74 ], [ %70, %66 ]
  %76 = phi i8 [ %81, %74 ], [ %72, %66 ]
  %77 = sext i8 %76 to i32
  %78 = call i32 @putchar(i32 %77)
  %79 = add i64 %75, 1
  %80 = getelementptr inbounds [100 x i8], [100 x i8]* %1, i64 0, i64 %79
  %81 = load i8, i8* %80, align 1, !tbaa !5
  %82 = icmp eq i8 %81, 0
  br i1 %82, label %90, label %74, !llvm.loop !12

83:                                               ; preds = %47
  %84 = add nuw i64 %48, 1
  %85 = getelementptr inbounds [100 x i8], [100 x i8]* %1, i64 0, i64 %84
  %86 = load i8, i8* %85, align 1, !tbaa !5
  %87 = icmp eq i8 %86, 0
  br i1 %87, label %88, label %47, !llvm.loop !8

88:                                               ; preds = %83, %39, %0
  %89 = call i32 (i8*, ...) @printf(i8* nonnull dereferenceable(1) getelementptr inbounds ([3 x i8], [3 x i8]* @.str.1, i64 0, i64 0), i8* nonnull %4)
  br label %90

90:                                               ; preds = %74, %66, %88
  call void @llvm.lifetime.end.p0i8(i64 100, i8* nonnull %8) #6
  call void @llvm.lifetime.end.p0i8(i64 100, i8* nonnull %6) #6
  call void @llvm.lifetime.end.p0i8(i64 100, i8* nonnull %4) #6
  ret i32 0
}

; Function Attrs: argmemonly mustprogress nofree nosync nounwind willreturn
declare void @llvm.lifetime.start.p0i8(i64 immarg, i8* nocapture) #1

declare i32 @gets(...) local_unnamed_addr #2

; Function Attrs: argmemonly mustprogress nofree nounwind readonly willreturn
declare i64 @strlen(i8* nocapture) local_unnamed_addr #3

; Function Attrs: nofree nounwind
declare noundef i32 @printf(i8* nocapture noundef readonly, ...) local_unnamed_addr #4

; Function Attrs: argmemonly mustprogress nofree nosync nounwind willreturn
declare void @llvm.lifetime.end.p0i8(i64 immarg, i8* nocapture) #1

; Function Attrs: nofree nounwind
declare noundef i32 @putchar(i32 noundef) local_unnamed_addr #5


!llvm.module.flags = !{!0, !1, !2, !3}
!llvm.ident = !{!4}

!0 = !{i32 1, !"wchar_size", i32 4}
!1 = !{i32 7, !"PIC Level", i32 2}
!2 = !{i32 7, !"PIE Level", i32 2}
!3 = !{i32 7, !"uwtable", i32 1}
!4 = !{!"clang version 13.0.0"}
!5 = !{!6, !6, i64 0}
!6 = !{!"omnipotent char", !7, i64 0}
!7 = !{!"Simple C/C++ TBAA"}
!8 = distinct !{!8, !9}
!9 = !{!"llvm.loop.mustprogress"}
!10 = distinct !{!10, !9}
!11 = distinct !{!11, !9}
!12 = distinct !{!12, !9}
